; ModuleID = '7/155.c'
source_filename = "7/155.c"
target datalayout = "e-m:e-p270:32:32-p271:32:32-p272:64:64-i64:64-f80:128-n8:16:32:64-S128"
target triple = "x86_64-pc-linux-gnu"

@.str = private unnamed_addr constant [7 x i8] c"%s%s%s\00", align 1
@.str.1 = private unnamed_addr constant [4 x i8] c"%s\0A\00", align 1
@.str.2 = private unnamed_addr constant [3 x i8] c"%s\00", align 1

; Function Attrs: noinline nounwind uwtable
define dso_local i32 @main() #0 {
  %1 = alloca i32, align 4
  %2 = alloca i32, align 4
  %3 = alloca i32, align 4
  %4 = alloca i32, align 4
  %5 = alloca i32, align 4
  %6 = alloca [257 x i8], align 16
  %7 = alloca [257 x i8], align 16
  %8 = alloca [257 x i8], align 16
  %9 = alloca i32, align 4
  store i32 0, i32* %1, align 4
  %10 = call i32 (i8*, ...) @__isoc99_scanf(i8* getelementptr inbounds ([7 x i8], [7 x i8]* @.str, i64 0, i64 0), [257 x i8]* %7, [257 x i8]* %6, [257 x i8]* %8)
  %11 = getelementptr inbounds [257 x i8], [257 x i8]* %6, i64 0, i64 0
  %12 = call i64 @strlen(i8* %11) #3
  %13 = trunc i64 %12 to i32
  store i32 %13, i32* %9, align 4
  store i32 0, i32* %5, align 4
  store i32 0, i32* %2, align 4
  br label %14

14:                                               ; preds = %62, %0
  %15 = load i32, i32* %2, align 4
  %16 = sext i32 %15 to i64
  %17 = getelementptr inbounds [257 x i8], [257 x i8]* %7, i64 0, i64 %16
  %18 = load i8, i8* %17, align 1
  %19 = sext i8 %18 to i32
  %20 = icmp ne i32 %19, 0
  br i1 %20, label %21, label %65

21:                                               ; preds = %14
  %22 = load i32, i32* %5, align 4
  %23 = icmp eq i32 %22, 1
  br i1 %23, label %24, label %25

24:                                               ; preds = %21
  br label %65

25:                                               ; preds = %21
  %26 = load i32, i32* %2, align 4
  %27 = sext i32 %26 to i64
  %28 = getelementptr inbounds [257 x i8], [257 x i8]* %7, i64 0, i64 %27
  %29 = load i8, i8* %28, align 1
  %30 = sext i8 %29 to i32
  %31 = getelementptr inbounds [257 x i8], [257 x i8]* %6, i64 0, i64 0
  %32 = load i8, i8* %31, align 16
  %33 = sext i8 %32 to i32
  %34 = icmp eq i32 %30, %33
  br i1 %34, label %35, label %61

35:                                               ; preds = %25
  store i32 1, i32* %3, align 4
  br label %36

36:                                               ; preds = %57, %35
  %37 = load i32, i32* %3, align 4
  %38 = load i32, i32* %9, align 4
  %39 = icmp slt i32 %37, %38
  br i1 %39, label %40, label %60

40:                                               ; preds = %36
  %41 = load i32, i32* %2, align 4
  %42 = load i32, i32* %3, align 4
  %43 = add nsw i32 %41, %42
  %44 = sext i32 %43 to i64
  %45 = getelementptr inbounds [257 x i8], [257 x i8]* %7, i64 0, i64 %44
  %46 = load i8, i8* %45, align 1
  %47 = sext i8 %46 to i32
  %48 = load i32, i32* %3, align 4
  %49 = sext i32 %48 to i64
  %50 = getelementptr inbounds [257 x i8], [257 x i8]* %6, i64 0, i64 %49
  %51 = load i8, i8* %50, align 1
  %52 = sext i8 %51 to i32
  %53 = icmp ne i32 %47, %52
  br i1 %53, label %54, label %55

54:                                               ; preds = %40
  br label %60

55:                                               ; preds = %40
  store i32 1, i32* %5, align 4
  %56 = load i32, i32* %2, align 4
  store i32 %56, i32* %4, align 4
  br label %60

57:                                               ; No predecessors!
  %58 = load i32, i32* %3, align 4
  %59 = add nsw i32 %58, 1
  store i32 %59, i32* %3, align 4
  br label %36

60:                                               ; preds = %55, %54, %36
  br label %61

61:                                               ; preds = %60, %25
  br label %62

62:                                               ; preds = %61
  %63 = load i32, i32* %2, align 4
  %64 = add nsw i32 %63, 1
  store i32 %64, i32* %2, align 4
  br label %14

65:                                               ; preds = %24, %14
  %66 = load i32, i32* %5, align 4
  %67 = icmp eq i32 %66, 1
  br i1 %67, label %68, label %92

68:                                               ; preds = %65
  %69 = load i32, i32* %4, align 4
  store i32 %69, i32* %2, align 4
  br label %70

70:                                               ; preds = %86, %68
  %71 = load i32, i32* %2, align 4
  %72 = load i32, i32* %4, align 4
  %73 = load i32, i32* %9, align 4
  %74 = add nsw i32 %72, %73
  %75 = icmp slt i32 %71, %74
  br i1 %75, label %76, label %89

76:                                               ; preds = %70
  %77 = load i32, i32* %2, align 4
  %78 = load i32, i32* %4, align 4
  %79 = sub nsw i32 %77, %78
  %80 = sext i32 %79 to i64
  %81 = getelementptr inbounds [257 x i8], [257 x i8]* %8, i64 0, i64 %80
  %82 = load i8, i8* %81, align 1
  %83 = load i32, i32* %2, align 4
  %84 = sext i32 %83 to i64
  %85 = getelementptr inbounds [257 x i8], [257 x i8]* %7, i64 0, i64 %84
  store i8 %82, i8* %85, align 1
  br label %86

86:                                               ; preds = %76
  %87 = load i32, i32* %2, align 4
  %88 = add nsw i32 %87, 1
  store i32 %88, i32* %2, align 4
  br label %70

89:                                               ; preds = %70
  %90 = getelementptr inbounds [257 x i8], [257 x i8]* %7, i64 0, i64 0
  %91 = call i32 (i8*, ...) @printf(i8* getelementptr inbounds ([4 x i8], [4 x i8]* @.str.1, i64 0, i64 0), i8* %90)
  br label %95

92:                                               ; preds = %65
  %93 = getelementptr inbounds [257 x i8], [257 x i8]* %7, i64 0, i64 0
  %94 = call i32 (i8*, ...) @printf(i8* getelementptr inbounds ([3 x i8], [3 x i8]* @.str.2, i64 0, i64 0), i8* %93)
  br label %95

95:                                               ; preds = %92, %89
  ret i32 0
}

declare dso_local i32 @__isoc99_scanf(i8*, ...) #1

; Function Attrs: nounwind readonly
declare dso_local i64 @strlen(i8*) #2

declare dso_local i32 @printf(i8*, ...) #1


!llvm.module.flags = !{!0}
!llvm.ident = !{!1}

!0 = !{i32 1, !"wchar_size", i32 4}
!1 = !{!"clang version 10.0.0-4ubuntu1 "}
